target datalayout = "e-m:e-p270:32:32-p271:32:32-p272:64:64-i64:64-f80:128-n8:16:32:64-S128"
target triple = "x86_64-pc-linux-gnu"

%struct.point = type { i32, [26 x i8] }

@__const.trans.a = private unnamed_addr constant [26 x i8] c"ABCDEFGHIJKLMNOPQRSTUVWXYZ", align 16
@.str = private unnamed_addr constant [3 x i8] c"%d\00", align 1
@.str.1 = private unnamed_addr constant [5 x i8] c"%d%s\00", align 1
@.str.2 = private unnamed_addr constant [4 x i8] c"%c\0A\00", align 1
@.str.3 = private unnamed_addr constant [4 x i8] c"%d\0A\00", align 1

; Function Attrs: noinline nounwind uwtable
define dso_local i32 @trans(i8 signext %0) #0 {
  %2 = alloca i32, align 4
  %3 = alloca i8, align 1
  %4 = alloca [26 x i8], align 16
  %5 = alloca i32, align 4
  store i8 %0, i8* %3, align 1
  %6 = bitcast [26 x i8]* %4 to i8*
  call void @llvm.memcpy.p0i8.p0i8.i64(i8* align 16 %6, i8* align 16 getelementptr inbounds ([26 x i8], [26 x i8]* @__const.trans.a, i32 0, i32 0), i64 26, i1 false)
  store i32 0, i32* %5, align 4
  br label %7

7:                                                ; preds = %22, %1
  %8 = load i32, i32* %5, align 4
  %9 = icmp slt i32 %8, 26
  br i1 %9, label %10, label %25

10:                                               ; preds = %7
  %11 = load i8, i8* %3, align 1
  %12 = sext i8 %11 to i32
  %13 = load i32, i32* %5, align 4
  %14 = sext i32 %13 to i64
  %15 = getelementptr inbounds [26 x i8], [26 x i8]* %4, i64 0, i64 %14
  %16 = load i8, i8* %15, align 1
  %17 = sext i8 %16 to i32
  %18 = icmp eq i32 %12, %17
  br i1 %18, label %19, label %21

19:                                               ; preds = %10
  %20 = load i32, i32* %5, align 4
  store i32 %20, i32* %2, align 4
  br label %25

21:                                               ; preds = %10
  br label %22

22:                                               ; preds = %21
  %23 = load i32, i32* %5, align 4
  %24 = add nsw i32 %23, 1
  store i32 %24, i32* %5, align 4
  br label %7

25:                                               ; preds = %19, %7
  %26 = load i32, i32* %2, align 4
  ret i32 %26
}

; Function Attrs: noinline nounwind uwtable
define dso_local i32 @main() #0 {
  %1 = alloca i32, align 4
  %2 = alloca i32, align 4
  %3 = alloca [1000 x %struct.point], align 16
  %4 = alloca [26 x i32], align 16
  %5 = alloca i32, align 4
  %6 = alloca i32, align 4
  %7 = alloca i32, align 4
  %8 = alloca i32, align 4
  %9 = alloca i32, align 4
  %10 = alloca i32, align 4
  %11 = alloca i8, align 1
  %12 = alloca i32, align 4
  store i32 0, i32* %1, align 4
  %13 = call i32 (i8*, ...) @__isoc99_scanf(i8* getelementptr inbounds ([3 x i8], [3 x i8]* @.str, i64 0, i64 0), i32* %2)
  store i32 0, i32* %5, align 4
  br label %14

14:                                               ; preds = %21, %0
  %15 = load i32, i32* %5, align 4
  %16 = icmp slt i32 %15, 26
  br i1 %16, label %17, label %24

17:                                               ; preds = %14
  %18 = load i32, i32* %5, align 4
  %19 = sext i32 %18 to i64
  %20 = getelementptr inbounds [26 x i32], [26 x i32]* %4, i64 0, i64 %19
  store i32 0, i32* %20, align 4
  br label %21

21:                                               ; preds = %17
  %22 = load i32, i32* %5, align 4
  %23 = add nsw i32 %22, 1
  store i32 %23, i32* %5, align 4
  br label %14

24:                                               ; preds = %14
  store i32 0, i32* %5, align 4
  br label %25

25:                                               ; preds = %40, %24
  %26 = load i32, i32* %5, align 4
  %27 = load i32, i32* %2, align 4
  %28 = icmp slt i32 %26, %27
  br i1 %28, label %29, label %43

29:                                               ; preds = %25
  %30 = load i32, i32* %5, align 4
  %31 = sext i32 %30 to i64
  %32 = getelementptr inbounds [1000 x %struct.point], [1000 x %struct.point]* %3, i64 0, i64 %31
  %33 = getelementptr inbounds %struct.point, %struct.point* %32, i32 0, i32 0
  %34 = load i32, i32* %5, align 4
  %35 = sext i32 %34 to i64
  %36 = getelementptr inbounds [1000 x %struct.point], [1000 x %struct.point]* %3, i64 0, i64 %35
  %37 = getelementptr inbounds %struct.point, %struct.point* %36, i32 0, i32 1
  %38 = getelementptr inbounds [26 x i8], [26 x i8]* %37, i64 0, i64 0
  %39 = call i32 (i8*, ...) @__isoc99_scanf(i8* getelementptr inbounds ([5 x i8], [5 x i8]* @.str.1, i64 0, i64 0), i32* %33, i8* %38)
  br label %40

40:                                               ; preds = %29
  %41 = load i32, i32* %5, align 4
  %42 = add nsw i32 %41, 1
  store i32 %42, i32* %5, align 4
  br label %25

43:                                               ; preds = %25
  store i32 0, i32* %5, align 4
  br label %44

44:                                               ; preds = %79, %43
  %45 = load i32, i32* %5, align 4
  %46 = load i32, i32* %2, align 4
  %47 = icmp slt i32 %45, %46
  br i1 %47, label %48, label %82

48:                                               ; preds = %44
  %49 = load i32, i32* %5, align 4
  %50 = sext i32 %49 to i64
  %51 = getelementptr inbounds [1000 x %struct.point], [1000 x %struct.point]* %3, i64 0, i64 %50
  %52 = getelementptr inbounds %struct.point, %struct.point* %51, i32 0, i32 1
  %53 = getelementptr inbounds [26 x i8], [26 x i8]* %52, i64 0, i64 0
  %54 = call i64 @strlen(i8* %53) #4
  %55 = trunc i64 %54 to i32
  store i32 %55, i32* %7, align 4
  store i32 0, i32* %6, align 4
  br label %56

56:                                               ; preds = %75, %48
  %57 = load i32, i32* %6, align 4
  %58 = load i32, i32* %7, align 4
  %59 = icmp slt i32 %57, %58
  br i1 %59, label %60, label %78

60:                                               ; preds = %56
  %61 = load i32, i32* %5, align 4
  %62 = sext i32 %61 to i64
  %63 = getelementptr inbounds [1000 x %struct.point], [1000 x %struct.point]* %3, i64 0, i64 %62
  %64 = getelementptr inbounds %struct.point, %struct.point* %63, i32 0, i32 1
  %65 = load i32, i32* %6, align 4
  %66 = sext i32 %65 to i64
  %67 = getelementptr inbounds [26 x i8], [26 x i8]* %64, i64 0, i64 %66
  %68 = load i8, i8* %67, align 1
  %69 = call i32 @trans(i8 signext %68)
  store i32 %69, i32* %8, align 4
  %70 = load i32, i32* %8, align 4
  %71 = sext i32 %70 to i64
  %72 = getelementptr inbounds [26 x i32], [26 x i32]* %4, i64 0, i64 %71
  %73 = load i32, i32* %72, align 4
  %74 = add nsw i32 %73, 1
  store i32 %74, i32* %72, align 4
  br label %75

75:                                               ; preds = %60
  %76 = load i32, i32* %6, align 4
  %77 = add nsw i32 %76, 1
  store i32 %77, i32* %6, align 4
  br label %56

78:                                               ; preds = %56
  br label %79

79:                                               ; preds = %78
  %80 = load i32, i32* %5, align 4
  %81 = add nsw i32 %80, 1
  store i32 %81, i32* %5, align 4
  br label %44

82:                                               ; preds = %44
  store i32 0, i32* %9, align 4
  store i32 0, i32* %5, align 4
  br label %83

83:                                               ; preds = %100, %82
  %84 = load i32, i32* %5, align 4
  %85 = icmp slt i32 %84, 26
  br i1 %85, label %86, label %103

86:                                               ; preds = %83
  %87 = load i32, i32* %5, align 4
  %88 = sext i32 %87 to i64
  %89 = getelementptr inbounds [26 x i32], [26 x i32]* %4, i64 0, i64 %88
  %90 = load i32, i32* %89, align 4
  %91 = load i32, i32* %9, align 4
  %92 = icmp sgt i32 %90, %91
  br i1 %92, label %93, label %99

93:                                               ; preds = %86
  %94 = load i32, i32* %5, align 4
  %95 = sext i32 %94 to i64
  %96 = getelementptr inbounds [26 x i32], [26 x i32]* %4, i64 0, i64 %95
  %97 = load i32, i32* %96, align 4
  store i32 %97, i32* %9, align 4
  %98 = load i32, i32* %5, align 4
  store i32 %98, i32* %10, align 4
  br label %99

99:                                               ; preds = %93, %86
  br label %100

100:                                              ; preds = %99
  %101 = load i32, i32* %5, align 4
  %102 = add nsw i32 %101, 1
  store i32 %102, i32* %5, align 4
  br label %83

103:                                              ; preds = %83
  %104 = load i32, i32* %10, align 4
  %105 = add nsw i32 65, %104
  %106 = trunc i32 %105 to i8
  store i8 %106, i8* %11, align 1
  %107 = load i8, i8* %11, align 1
  %108 = sext i8 %107 to i32
  %109 = call i32 (i8*, ...) @printf(i8* getelementptr inbounds ([4 x i8], [4 x i8]* @.str.2, i64 0, i64 0), i32 %108)
  %110 = load i32, i32* %9, align 4
  %111 = call i32 (i8*, ...) @printf(i8* getelementptr inbounds ([4 x i8], [4 x i8]* @.str.3, i64 0, i64 0), i32 %110)
  store i32 0, i32* %5, align 4
  br label %112

112:                                              ; preds = %153, %103
  %113 = load i32, i32* %5, align 4
  %114 = load i32, i32* %2, align 4
  %115 = icmp slt i32 %113, %114
  br i1 %115, label %116, label %156

116:                                              ; preds = %112
  %117 = load i32, i32* %5, align 4
  %118 = sext i32 %117 to i64
  %119 = getelementptr inbounds [1000 x %struct.point], [1000 x %struct.point]* %3, i64 0, i64 %118
  %120 = getelementptr inbounds %struct.point, %struct.point* %119, i32 0, i32 1
  %121 = getelementptr inbounds [26 x i8], [26 x i8]* %120, i64 0, i64 0
  %122 = call i64 @strlen(i8* %121) #4
  %123 = trunc i64 %122 to i32
  store i32 %123, i32* %12, align 4
  store i32 0, i32* %6, align 4
  br label %124

124:                                              ; preds = %149, %116
  %125 = load i32, i32* %6, align 4
  %126 = load i32, i32* %12, align 4
  %127 = icmp slt i32 %125, %126
  br i1 %127, label %128, label %152

128:                                              ; preds = %124
  %129 = load i32, i32* %5, align 4
  %130 = sext i32 %129 to i64
  %131 = getelementptr inbounds [1000 x %struct.point], [1000 x %struct.point]* %3, i64 0, i64 %130
  %132 = getelementptr inbounds %struct.point, %struct.point* %131, i32 0, i32 1
  %133 = load i32, i32* %6, align 4
  %134 = sext i32 %133 to i64
  %135 = getelementptr inbounds [26 x i8], [26 x i8]* %132, i64 0, i64 %134
  %136 = load i8, i8* %135, align 1
  %137 = sext i8 %136 to i32
  %138 = load i32, i32* %10, align 4
  %139 = add nsw i32 65, %138
  %140 = icmp eq i32 %137, %139
  br i1 %140, label %141, label %148

141:                                              ; preds = %128
  %142 = load i32, i32* %5, align 4
  %143 = sext i32 %142 to i64
  %144 = getelementptr inbounds [1000 x %struct.point], [1000 x %struct.point]* %3, i64 0, i64 %143
  %145 = getelementptr inbounds %struct.point, %struct.point* %144, i32 0, i32 0
  %146 = load i32, i32* %145, align 16
  %147 = call i32 (i8*, ...) @printf(i8* getelementptr inbounds ([4 x i8], [4 x i8]* @.str.3, i64 0, i64 0), i32 %146)
  br label %152

148:                                              ; preds = %128
  br label %149

149:                                              ; preds = %148
  %150 = load i32, i32* %6, align 4
  %151 = add nsw i32 %150, 1
  store i32 %151, i32* %6, align 4
  br label %124

152:                                              ; preds = %141, %124
  br label %153

153:                                              ; preds = %152
  %154 = load i32, i32* %5, align 4
  %155 = add nsw i32 %154, 1
  store i32 %155, i32* %5, align 4
  br label %112

156:                                              ; preds = %112
  ret i32 0
}